; Function Attrs: mustprogress nounwind uwtable
define void @_ZN30colvarbias_restraint_histogramD0Ev(ptr noundef nonnull align 8 dereferenceable(425) %0) unnamed_addr #1 align 2 {
  tail call void @_ZN30colvarbias_restraint_histogramD2Ev(ptr noundef nonnull align 8 dereferenceable(425) %0, ptr noundef nonnull @_ZTT30colvarbias_restraint_histogram) #26
  %2 = getelementptr inbounds i8, ptr %0, i64 752
  tail call void @_ZN10colvardepsD2Ev(ptr noundef nonnull align 8 dereferenceable(120) %2) #26
  %3 = getelementptr inbounds i8, ptr %0, i64 432
  tail call void @_ZN11colvarparseD2Ev(ptr noundef nonnull align 8 dereferenceable(320) %3) #26
  tail call void @_ZdlPv(ptr noundef nonnull %0) #25
  ret void
}